; Function Attrs: nounwind uwtable
define void @dt_camctl_camera_set_property_float(ptr noundef readonly captures(none) %0, ptr noundef %1, ptr noundef %2, float noundef %3) local_unnamed_addr #0 {
  %.not = icmp eq ptr %1, null
  br i1 %.not, label %5, label %17

5:                                                ; preds = %4
  %6 = getelementptr inbounds nuw i8, ptr %0, i64 144
  %7 = load ptr, ptr %6, align 8, !tbaa !6
  %8 = icmp eq ptr %7, null
  br i1 %8, label %9, label %17

9:                                                ; preds = %5
  %10 = getelementptr inbounds nuw i8, ptr %0, i64 136
  %11 = load ptr, ptr %10, align 8, !tbaa !61
  %12 = icmp eq ptr %11, null
  br i1 %12, label %13, label %17

13:                                               ; preds = %9
  %14 = load i32, ptr getelementptr inbounds nuw (i8, ptr @darktable, i64 8), align 8, !tbaa !19
  %15 = and i32 %14, 32
  %.not16 = icmp eq i32 %15, 0
  br i1 %.not16, label %28, label %16

16:                                               ; preds = %13
  tail call void (ptr, ...) @dt_print_ext(ptr noundef nonnull @.str.26) #15
  br label %28

17:                                               ; preds = %9, %5, %4
  %.0 = phi ptr [ %1, %4 ], [ %11, %9 ], [ %7, %5 ]
  %18 = tail call noalias dereferenceable_or_null(24) ptr @g_malloc(i64 noundef 24) #16
  store i32 8, ptr %18, align 8, !tbaa !204
  %19 = tail call noalias ptr @g_strdup(ptr noundef %2) #15
  %20 = getelementptr inbounds nuw i8, ptr %18, i64 8
  store ptr %19, ptr %20, align 8, !tbaa !194
  %21 = getelementptr inbounds nuw i8, ptr %18, i64 16
  store float %3, ptr %21, align 8, !tbaa !197
  %22 = getelementptr inbounds nuw i8, ptr %.0, i64 32888
  %23 = tail call i32 @pthread_mutex_lock(ptr noundef nonnull %22) #15
  %24 = getelementptr inbounds nuw i8, ptr %.0, i64 32928
  %25 = load ptr, ptr %24, align 8, !tbaa !66
  %26 = tail call ptr @g_list_append(ptr noundef %25, ptr noundef nonnull %18) #15
  store ptr %26, ptr %24, align 8, !tbaa !66
  %27 = tail call i32 @pthread_mutex_unlock(ptr noundef nonnull %22) #15
  br label %28

28:                                               ; preds = %13, %16, %17
  ret void
}